target datalayout = "e-m:e-p270:32:32-p271:32:32-p272:64:64-i64:64-i128:128-f80:128-n8:16:32:64-S128"
target triple = "x86_64-pc-linux-gnu"

%struct.lua_State = type { %struct.GCRef, i8, i8, i8, i8, %struct.MRef, %struct.GCRef, ptr, ptr, %struct.MRef, %struct.MRef, %struct.GCRef, %struct.GCRef, ptr, i32 }
%struct.MRef = type { i64 }
%struct.GCRef = type { i64 }
%union.TValue = type { i64 }
%struct.CTState = type { ptr, i32, i32, ptr, ptr, ptr, %struct.CCallback, [128 x i16] }
%struct.CCallback = type { [8 x %union.FPRCBArg], [8 x i64], ptr, ptr, ptr, i32, i32, i32 }
%union.FPRCBArg = type { double }
%struct.global_State = type { ptr, ptr, %struct.GCState, %struct.GCstr, i8, i8, i8, i8, %struct.StrInternState, i32, %struct.GCRef, %struct.SBuf, %union.TValue, %union.TValue, %struct.Node, %union.TValue, %struct.GCupval, i32, i32, ptr, ptr, ptr, i32, i32, %struct.GCRef, %struct.MRef, %struct.MRef, %struct.PRNGState, [39 x %struct.GCRef] }
%struct.GCState = type { i64, i64, i8, i8, i8, i8, i32, %struct.GCRef, %struct.MRef, %struct.GCRef, %struct.GCRef, %struct.GCRef, %struct.GCRef, i64, i64, i32, i32, %struct.MRef }
%struct.GCstr = type { %struct.GCRef, i8, i8, i8, i8, i32, i32, i32 }
%struct.StrInternState = type { ptr, i32, i32, i32, i8, i8, i8, i8, i64 }
%struct.SBuf = type { ptr, ptr, ptr, %struct.MRef }
%struct.Node = type { %union.TValue, %union.TValue, %struct.MRef }
%struct.GCupval = type { %struct.GCRef, i8, i8, i8, i8, %union.anon, %struct.MRef, i32 }
%union.anon = type { %struct.anon.1 }
%struct.anon.1 = type { %struct.GCRef, %struct.GCRef }
%struct.PRNGState = type { [4 x i64] }
%struct.GCcdata = type { %struct.GCRef, i8, i8, i16 }
%struct.CType = type { i32, i32, i16, i16, %struct.GCRef }
%struct.GCudata = type { %struct.GCRef, i8, i8, i8, i8, %struct.GCRef, i32, %struct.GCRef, i32 }

@.str.3 = private unnamed_addr constant [23 x i8] c"copy of dead GC object\00", align 1

; Function Attrs: alwaysinline nounwind uwtable
define internal void @checklivetv(ptr noundef %0, ptr noundef %1, ptr noundef %2) #3 {
  %4 = alloca ptr, align 8
  %5 = alloca ptr, align 8
  %6 = alloca ptr, align 8
  store ptr %0, ptr %4, align 8, !tbaa !4
  store ptr %1, ptr %5, align 8, !tbaa !30
  store ptr %2, ptr %6, align 8, !tbaa !35
  ret void
}

; Function Attrs: alwaysinline nounwind uwtable
define internal ptr @ctype_child(ptr noundef %0, ptr noundef %1) #3 {
  %3 = alloca ptr, align 8
  %4 = alloca ptr, align 8
  store ptr %0, ptr %3, align 8, !tbaa !9
  store ptr %1, ptr %4, align 8, !tbaa !38
  %5 = load ptr, ptr %3, align 8, !tbaa !9
  %6 = load ptr, ptr %4, align 8, !tbaa !38
  %7 = getelementptr inbounds nuw %struct.CType, ptr %6, i32 0, i32 0
  %8 = load i32, ptr %7, align 8, !tbaa !55
  %9 = and i32 %8, 65535
  %10 = call ptr @ctype_get(ptr noundef %5, i32 noundef %9)
  ret ptr %10
}

; Function Attrs: alwaysinline nounwind uwtable
define internal i32 @ctype_check(ptr noundef %0, i32 noundef %1) #3 {
  %3 = alloca ptr, align 8
  %4 = alloca i32, align 4
  store ptr %0, ptr %3, align 8, !tbaa !9
  store i32 %1, ptr %4, align 4, !tbaa !34
  %5 = load i32, ptr %4, align 4, !tbaa !34
  ret i32 %5
}

; Function Attrs: alwaysinline nounwind uwtable
define internal void @copyTV(ptr noundef %0, ptr noundef %1, ptr noundef %2) #3 {
  %4 = alloca ptr, align 8
  %5 = alloca ptr, align 8
  %6 = alloca ptr, align 8
  store ptr %0, ptr %4, align 8, !tbaa !4
  store ptr %1, ptr %5, align 8, !tbaa !30
  store ptr %2, ptr %6, align 8, !tbaa !30
  %7 = load ptr, ptr %5, align 8, !tbaa !30
  %8 = load ptr, ptr %6, align 8, !tbaa !30
  call void @llvm.memcpy.p0.p0.i64(ptr align 8 %7, ptr align 8 %8, i64 8, i1 false), !tbaa.struct !63
  %9 = load ptr, ptr %4, align 8, !tbaa !4
  %10 = load ptr, ptr %5, align 8, !tbaa !30
  call void @checklivetv(ptr noundef %9, ptr noundef %10, ptr noundef @.str.3)
  ret void
}

; Function Attrs: alwaysinline nounwind uwtable
define internal ptr @ctype_raw(ptr noundef %0, i32 noundef %1) #3 {
  %3 = alloca ptr, align 8
  %4 = alloca i32, align 4
  %5 = alloca ptr, align 8
  store ptr %0, ptr %3, align 8, !tbaa !9
  store i32 %1, ptr %4, align 4, !tbaa !34
  call void @llvm.lifetime.start.p0(i64 8, ptr %5) #10
  %6 = load ptr, ptr %3, align 8, !tbaa !9
  %7 = load i32, ptr %4, align 4, !tbaa !34
  %8 = call ptr @ctype_get(ptr noundef %6, i32 noundef %7)
  store ptr %8, ptr %5, align 8, !tbaa !38
  br label %9

9:                                                ; preds = %15, %2
  %10 = load ptr, ptr %5, align 8, !tbaa !38
  %11 = getelementptr inbounds nuw %struct.CType, ptr %10, i32 0, i32 0
  %12 = load i32, ptr %11, align 8, !tbaa !55
  %13 = lshr i32 %12, 28
  %14 = icmp eq i32 %13, 8
  br i1 %14, label %15, label %19

15:                                               ; preds = %9
  %16 = load ptr, ptr %3, align 8, !tbaa !9
  %17 = load ptr, ptr %5, align 8, !tbaa !38
  %18 = call ptr @ctype_child(ptr noundef %16, ptr noundef %17)
  store ptr %18, ptr %5, align 8, !tbaa !38
  br label %9, !llvm.loop !64

19:                                               ; preds = %9
  %20 = load ptr, ptr %5, align 8, !tbaa !38
  call void @llvm.lifetime.end.p0(i64 8, ptr %5) #10
  ret ptr %20
}

; Function Attrs: alwaysinline nounwind uwtable
define internal ptr @ctype_get(ptr noundef %0, i32 noundef %1) #3 {
  %3 = alloca ptr, align 8
  %4 = alloca i32, align 4
  store ptr %0, ptr %3, align 8, !tbaa !9
  store i32 %1, ptr %4, align 4, !tbaa !34
  %5 = load ptr, ptr %3, align 8, !tbaa !9
  %6 = getelementptr inbounds nuw %struct.CTState, ptr %5, i32 0, i32 0
  %7 = load ptr, ptr %6, align 8, !tbaa !60
  %8 = load ptr, ptr %3, align 8, !tbaa !9
  %9 = load i32, ptr %4, align 4, !tbaa !34
  %10 = call i32 @ctype_check(ptr noundef %8, i32 noundef %9)
  %11 = zext i32 %10 to i64
  %12 = getelementptr inbounds nuw %struct.CType, ptr %7, i64 %11
  ret ptr %12
}

; Function Attrs: alwaysinline nounwind uwtable
define internal ptr @ctype_cts(ptr noundef %0) #3 {
  %2 = alloca ptr, align 8
  %3 = alloca ptr, align 8
  store ptr %0, ptr %2, align 8, !tbaa !4
  call void @llvm.lifetime.start.p0(i64 8, ptr %3) #10
  %4 = load ptr, ptr %2, align 8, !tbaa !4
  %5 = getelementptr inbounds nuw %struct.lua_State, ptr %4, i32 0, i32 5
  %6 = getelementptr inbounds nuw %struct.MRef, ptr %5, i32 0, i32 0
  %7 = load i64, ptr %6, align 8, !tbaa !27
  %8 = inttoptr i64 %7 to ptr
  %9 = getelementptr inbounds nuw %struct.global_State, ptr %8, i32 0, i32 26
  %10 = getelementptr inbounds nuw %struct.MRef, ptr %9, i32 0, i32 0
  %11 = load i64, ptr %10, align 8, !tbaa !61
  %12 = inttoptr i64 %11 to ptr
  store ptr %12, ptr %3, align 8, !tbaa !9
  %13 = load ptr, ptr %2, align 8, !tbaa !4
  %14 = load ptr, ptr %3, align 8, !tbaa !9
  %15 = getelementptr inbounds nuw %struct.CTState, ptr %14, i32 0, i32 3
  store ptr %13, ptr %15, align 8, !tbaa !62
  %16 = load ptr, ptr %3, align 8, !tbaa !9
  call void @llvm.lifetime.end.p0(i64 8, ptr %3) #10
  ret ptr %16
}

; Function Attrs: nounwind uwtable
define internal ptr @ffi_clib_index(ptr noundef %0) #0 {
  %2 = alloca ptr, align 8
  %3 = alloca ptr, align 8
  %4 = alloca ptr, align 8
  store ptr %0, ptr %2, align 8, !tbaa !4
  call void @llvm.lifetime.start.p0(i64 8, ptr %3) #10
  %5 = load ptr, ptr %2, align 8, !tbaa !4
  %6 = getelementptr inbounds nuw %struct.lua_State, ptr %5, i32 0, i32 7
  %7 = load ptr, ptr %6, align 8, !tbaa !37
  store ptr %7, ptr %3, align 8, !tbaa !30
  call void @llvm.lifetime.start.p0(i64 8, ptr %4) #10
  %8 = load ptr, ptr %3, align 8, !tbaa !30
  %9 = load ptr, ptr %2, align 8, !tbaa !4
  %10 = getelementptr inbounds nuw %struct.lua_State, ptr %9, i32 0, i32 8
  %11 = load ptr, ptr %10, align 8, !tbaa !11
  %12 = icmp ult ptr %8, %11
  br i1 %12, label %13, label %29

13:                                               ; preds = %1
  %14 = load ptr, ptr %3, align 8, !tbaa !30
  %15 = load i64, ptr %14, align 8, !tbaa !26
  %16 = ashr i64 %15, 47
  %17 = trunc i64 %16 to i32
  %18 = icmp eq i32 %17, -13
  br i1 %18, label %19, label %29

19:                                               ; preds = %13
  %20 = load ptr, ptr %3, align 8, !tbaa !30
  %21 = getelementptr inbounds nuw %struct.GCRef, ptr %20, i32 0, i32 0
  %22 = load i64, ptr %21, align 8, !tbaa !26
  %23 = and i64 %22, 140737488355327
  %24 = inttoptr i64 %23 to ptr
  %25 = getelementptr inbounds nuw %struct.GCudata, ptr %24, i32 0, i32 3
  %26 = load i8, ptr %25, align 2, !tbaa !26
  %27 = zext i8 %26 to i32
  %28 = icmp eq i32 %27, 2
  br i1 %28, label %31, label %29

29:                                               ; preds = %19, %13, %1
  %30 = load ptr, ptr %2, align 8, !tbaa !4
  call void @lj_err_argt(ptr noundef %30, i32 noundef 1, i32 noundef 7) #11
  unreachable

31:                                               ; preds = %19
  %32 = load ptr, ptr %3, align 8, !tbaa !30
  %33 = getelementptr inbounds nuw %struct.GCRef, ptr %32, i32 0, i32 0
  %34 = load i64, ptr %33, align 8, !tbaa !26
  %35 = and i64 %34, 140737488355327
  %36 = inttoptr i64 %35 to ptr
  %37 = getelementptr inbounds %struct.GCudata, ptr %36, i64 1
  store ptr %37, ptr %4, align 8, !tbaa !84
  %38 = load ptr, ptr %3, align 8, !tbaa !30
  %39 = getelementptr inbounds %union.TValue, ptr %38, i64 1
  %40 = load ptr, ptr %2, align 8, !tbaa !4
  %41 = getelementptr inbounds nuw %struct.lua_State, ptr %40, i32 0, i32 8
  %42 = load ptr, ptr %41, align 8, !tbaa !11
  %43 = icmp ult ptr %39, %42
  br i1 %43, label %44, label %51

44:                                               ; preds = %31
  %45 = load ptr, ptr %3, align 8, !tbaa !30
  %46 = getelementptr inbounds %union.TValue, ptr %45, i64 1
  %47 = load i64, ptr %46, align 8, !tbaa !26
  %48 = ashr i64 %47, 47
  %49 = trunc i64 %48 to i32
  %50 = icmp eq i32 %49, -5
  br i1 %50, label %53, label %51

51:                                               ; preds = %44, %31
  %52 = load ptr, ptr %2, align 8, !tbaa !4
  call void @lj_err_argt(ptr noundef %52, i32 noundef 2, i32 noundef 4) #11
  unreachable

53:                                               ; preds = %44
  %54 = load ptr, ptr %2, align 8, !tbaa !4
  %55 = load ptr, ptr %4, align 8, !tbaa !84
  %56 = load ptr, ptr %3, align 8, !tbaa !30
  %57 = getelementptr inbounds %union.TValue, ptr %56, i64 1
  %58 = getelementptr inbounds nuw %struct.GCRef, ptr %57, i32 0, i32 0
  %59 = load i64, ptr %58, align 8, !tbaa !26
  %60 = and i64 %59, 140737488355327
  %61 = inttoptr i64 %60 to ptr
  %62 = call ptr @lj_clib_index(ptr noundef %54, ptr noundef %55, ptr noundef %61)
  call void @llvm.lifetime.end.p0(i64 8, ptr %4) #10
  call void @llvm.lifetime.end.p0(i64 8, ptr %3) #10
  ret ptr %62
}

; Function Attrs: nounwind uwtable
define internal i32 @lj_cf_ffi_clib___index(ptr noundef %0) #0 {
  %2 = alloca i32, align 4
  %3 = alloca ptr, align 8
  %4 = alloca ptr, align 8
  %5 = alloca ptr, align 8
  %6 = alloca ptr, align 8
  %7 = alloca ptr, align 8
  %8 = alloca i32, align 4
  %9 = alloca ptr, align 8
  %10 = alloca ptr, align 8
  %11 = alloca i32, align 4
  store ptr %0, ptr %3, align 8, !tbaa !4
  call void @llvm.lifetime.start.p0(i64 8, ptr %4) #10
  %12 = load ptr, ptr %3, align 8, !tbaa !4
  %13 = call ptr @ffi_clib_index(ptr noundef %12)
  store ptr %13, ptr %4, align 8, !tbaa !30
  %14 = load ptr, ptr %4, align 8, !tbaa !30
  %15 = load i64, ptr %14, align 8, !tbaa !26
  %16 = ashr i64 %15, 47
  %17 = trunc i64 %16 to i32
  %18 = icmp eq i32 %17, -11
  br i1 %18, label %19, label %92

19:                                               ; preds = %1
  call void @llvm.lifetime.start.p0(i64 8, ptr %5) #10
  %20 = load ptr, ptr %3, align 8, !tbaa !4
  %21 = call ptr @ctype_cts(ptr noundef %20)
  store ptr %21, ptr %5, align 8, !tbaa !9
  call void @llvm.lifetime.start.p0(i64 8, ptr %6) #10
  %22 = load ptr, ptr %4, align 8, !tbaa !30
  %23 = getelementptr inbounds nuw %struct.GCRef, ptr %22, i32 0, i32 0
  %24 = load i64, ptr %23, align 8, !tbaa !26
  %25 = and i64 %24, 140737488355327
  %26 = inttoptr i64 %25 to ptr
  store ptr %26, ptr %6, align 8, !tbaa !50
  call void @llvm.lifetime.start.p0(i64 8, ptr %7) #10
  %27 = load ptr, ptr %5, align 8, !tbaa !9
  %28 = load ptr, ptr %6, align 8, !tbaa !50
  %29 = getelementptr inbounds nuw %struct.GCcdata, ptr %28, i32 0, i32 3
  %30 = load i16, ptr %29, align 2, !tbaa !52
  %31 = zext i16 %30 to i32
  %32 = call ptr @ctype_get(ptr noundef %27, i32 noundef %31)
  store ptr %32, ptr %7, align 8, !tbaa !38
  %33 = load ptr, ptr %7, align 8, !tbaa !38
  %34 = getelementptr inbounds nuw %struct.CType, ptr %33, i32 0, i32 0
  %35 = load i32, ptr %34, align 8, !tbaa !55
  %36 = lshr i32 %35, 28
  %37 = icmp eq i32 %36, 12
  br i1 %37, label %38, label %88

38:                                               ; preds = %19
  call void @llvm.lifetime.start.p0(i64 4, ptr %8) #10
  %39 = load ptr, ptr %7, align 8, !tbaa !38
  %40 = getelementptr inbounds nuw %struct.CType, ptr %39, i32 0, i32 0
  %41 = load i32, ptr %40, align 8, !tbaa !55
  %42 = and i32 %41, 65535
  store i32 %42, ptr %8, align 4, !tbaa !34
  call void @llvm.lifetime.start.p0(i64 8, ptr %9) #10
  %43 = load ptr, ptr %6, align 8, !tbaa !50
  %44 = getelementptr inbounds %struct.GCcdata, ptr %43, i64 1
  %45 = load ptr, ptr %44, align 8, !tbaa !57
  store ptr %45, ptr %9, align 8, !tbaa !57
  call void @llvm.lifetime.start.p0(i64 8, ptr %10) #10
  %46 = load ptr, ptr %5, align 8, !tbaa !9
  %47 = load i32, ptr %8, align 4, !tbaa !34
  %48 = call ptr @ctype_raw(ptr noundef %46, i32 noundef %47)
  store ptr %48, ptr %10, align 8, !tbaa !38
  %49 = load ptr, ptr %5, align 8, !tbaa !9
  %50 = load ptr, ptr %10, align 8, !tbaa !38
  %51 = load i32, ptr %8, align 4, !tbaa !34
  %52 = load ptr, ptr %3, align 8, !tbaa !4
  %53 = getelementptr inbounds nuw %struct.lua_State, ptr %52, i32 0, i32 8
  %54 = load ptr, ptr %53, align 8, !tbaa !11
  %55 = getelementptr inbounds %union.TValue, ptr %54, i64 -1
  %56 = load ptr, ptr %9, align 8, !tbaa !57
  %57 = call i32 @lj_cconv_tv_ct(ptr noundef %49, ptr noundef %50, i32 noundef %51, ptr noundef %55, ptr noundef %56)
  %58 = icmp ne i32 %57, 0
  br i1 %58, label %59, label %87

59:                                               ; preds = %38
  %60 = load ptr, ptr %3, align 8, !tbaa !4
  %61 = getelementptr inbounds nuw %struct.lua_State, ptr %60, i32 0, i32 5
  %62 = getelementptr inbounds nuw %struct.MRef, ptr %61, i32 0, i32 0
  %63 = load i64, ptr %62, align 8, !tbaa !27
  %64 = inttoptr i64 %63 to ptr
  %65 = getelementptr inbounds nuw %struct.global_State, ptr %64, i32 0, i32 2
  %66 = getelementptr inbounds nuw %struct.GCState, ptr %65, i32 0, i32 0
  %67 = load i64, ptr %66, align 8, !tbaa !39
  %68 = load ptr, ptr %3, align 8, !tbaa !4
  %69 = getelementptr inbounds nuw %struct.lua_State, ptr %68, i32 0, i32 5
  %70 = getelementptr inbounds nuw %struct.MRef, ptr %69, i32 0, i32 0
  %71 = load i64, ptr %70, align 8, !tbaa !27
  %72 = inttoptr i64 %71 to ptr
  %73 = getelementptr inbounds nuw %struct.global_State, ptr %72, i32 0, i32 2
  %74 = getelementptr inbounds nuw %struct.GCState, ptr %73, i32 0, i32 1
  %75 = load i64, ptr %74, align 8, !tbaa !49
  %76 = icmp uge i64 %67, %75
  %77 = xor i1 %76, true
  %78 = xor i1 %77, true
  %79 = zext i1 %78 to i32
  %80 = sext i32 %79 to i64
  %81 = call i64 @llvm.expect.i64(i64 %80, i64 0)
  %82 = icmp ne i64 %81, 0
  br i1 %82, label %83, label %86

83:                                               ; preds = %59
  %84 = load ptr, ptr %3, align 8, !tbaa !4
  %85 = call i32 @lj_gc_step(ptr noundef %84)
  br label %86

86:                                               ; preds = %83, %59
  br label %87

87:                                               ; preds = %86, %38
  store i32 1, ptr %2, align 4
  store i32 1, ptr %11, align 4
  call void @llvm.lifetime.end.p0(i64 8, ptr %10) #10
  call void @llvm.lifetime.end.p0(i64 8, ptr %9) #10
  call void @llvm.lifetime.end.p0(i64 4, ptr %8) #10
  br label %89

88:                                               ; preds = %19
  store i32 0, ptr %11, align 4
  br label %89

89:                                               ; preds = %88, %87
  call void @llvm.lifetime.end.p0(i64 8, ptr %7) #10
  call void @llvm.lifetime.end.p0(i64 8, ptr %6) #10
  call void @llvm.lifetime.end.p0(i64 8, ptr %5) #10
  %90 = load i32, ptr %11, align 4
  switch i32 %90, label %99 [
    i32 0, label %91
  ]

91:                                               ; preds = %89
  br label %92

92:                                               ; preds = %91, %1
  %93 = load ptr, ptr %3, align 8, !tbaa !4
  %94 = load ptr, ptr %3, align 8, !tbaa !4
  %95 = getelementptr inbounds nuw %struct.lua_State, ptr %94, i32 0, i32 8
  %96 = load ptr, ptr %95, align 8, !tbaa !11
  %97 = getelementptr inbounds %union.TValue, ptr %96, i64 -1
  %98 = load ptr, ptr %4, align 8, !tbaa !30
  call void @copyTV(ptr noundef %93, ptr noundef %97, ptr noundef %98)
  store i32 1, ptr %2, align 4
  store i32 1, ptr %11, align 4
  br label %99

99:                                               ; preds = %92, %89
  call void @llvm.lifetime.end.p0(i64 8, ptr %4) #10
  %100 = load i32, ptr %2, align 4
  ret i32 %100
}