; Function Attrs: nounwind uwtable
define internal noundef i32 @lj_cf_ffi_clib___index(ptr noundef %0) #0 {
  %2 = getelementptr inbounds nuw i8, ptr %0, i64 32
  %3 = load ptr, ptr %2, align 8, !tbaa !44
  %4 = getelementptr inbounds nuw i8, ptr %0, i64 40
  %5 = load ptr, ptr %4, align 8, !tbaa !4
  %6 = icmp ult ptr %3, %5
  br i1 %6, label %7, label %16

7:                                                ; preds = %1
  %8 = load i64, ptr %3, align 8, !tbaa !23
  %.mask.i = and i64 %8, -140737488355328
  %9 = icmp eq i64 %.mask.i, -1829587348619264
  br i1 %9, label %10, label %16

10:                                               ; preds = %7
  %11 = and i64 %8, 140737488355327
  %12 = inttoptr i64 %11 to ptr
  %13 = getelementptr inbounds nuw i8, ptr %12, i64 10
  %14 = load i8, ptr %13, align 2, !tbaa !23
  %15 = icmp eq i8 %14, 2
  br i1 %15, label %17, label %16

16:                                               ; preds = %10, %7, %1
  tail call void @lj_err_argt(ptr noundef nonnull %0, i32 noundef 1, i32 noundef 7) #10
  unreachable

17:                                               ; preds = %10
  %18 = getelementptr inbounds nuw i8, ptr %3, i64 8
  %19 = icmp ult ptr %18, %5
  br i1 %19, label %20, label %23

20:                                               ; preds = %17
  %21 = load i64, ptr %18, align 8, !tbaa !23
  %.mask16.i = and i64 %21, -140737488355328
  %22 = icmp eq i64 %.mask16.i, -703687441776640
  br i1 %22, label %ffi_clib_index.exit, label %23

23:                                               ; preds = %20, %17
  tail call void @lj_err_argt(ptr noundef nonnull %0, i32 noundef 2, i32 noundef 4) #10
  unreachable

ffi_clib_index.exit:                              ; preds = %20
  %24 = getelementptr inbounds nuw i8, ptr %12, i64 48
  %25 = and i64 %21, 140737488355327
  %26 = inttoptr i64 %25 to ptr
  %27 = tail call ptr @lj_clib_index(ptr noundef nonnull %0, ptr noundef nonnull %24, ptr noundef %26) #9
  %28 = load i64, ptr %27, align 8, !tbaa !23
  %.mask = and i64 %28, -140737488355328
  %29 = icmp eq i64 %.mask, -1548112371908608
  br i1 %29, label %30, label %.critedge

30:                                               ; preds = %ffi_clib_index.exit
  %31 = getelementptr inbounds nuw i8, ptr %0, i64 16
  %32 = load i64, ptr %31, align 8, !tbaa !24
  %33 = inttoptr i64 %32 to ptr
  %34 = getelementptr inbounds nuw i8, ptr %33, i64 384
  %35 = load i64, ptr %34, align 8, !tbaa !41
  %36 = inttoptr i64 %35 to ptr
  %37 = getelementptr inbounds nuw i8, ptr %36, i64 16
  store ptr %0, ptr %37, align 8, !tbaa !42
  %38 = load i64, ptr %27, align 8, !tbaa !23
  %39 = and i64 %38, 140737488355327
  %40 = inttoptr i64 %39 to ptr
  %41 = getelementptr inbounds nuw i8, ptr %40, i64 10
  %42 = load i16, ptr %41, align 2, !tbaa !48
  %43 = load ptr, ptr %36, align 8, !tbaa !51
  %44 = zext i16 %42 to i64
  %45 = getelementptr inbounds nuw %struct.CType, ptr %43, i64 %44
  %46 = load i32, ptr %45, align 8, !tbaa !52
  %.mask24 = and i32 %46, -268435456
  %.not26 = icmp eq i32 %.mask24, -1073741824
  br i1 %.not26, label %47, label %.critedge

47:                                               ; preds = %30
  %48 = and i32 %46, 65535
  %49 = getelementptr inbounds nuw i8, ptr %40, i64 16
  %50 = load ptr, ptr %49, align 8, !tbaa !56
  br label %51

51:                                               ; preds = %51, %47
  %.pn.in = phi i32 [ %48, %47 ], [ %54, %51 ]
  %.pn = zext nneg i32 %.pn.in to i64
  %.0.i = getelementptr inbounds nuw %struct.CType, ptr %43, i64 %.pn
  %52 = load i32, ptr %.0.i, align 8, !tbaa !52
  %53 = icmp slt i32 %52, -1879048192
  %54 = and i32 %52, 65535
  br i1 %53, label %51, label %ctype_raw.exit, !llvm.loop !54

ctype_raw.exit:                                   ; preds = %51
  %55 = load ptr, ptr %4, align 8, !tbaa !4
  %56 = getelementptr inbounds i8, ptr %55, i64 -8
  %57 = tail call i32 @lj_cconv_tv_ct(ptr noundef nonnull %36, ptr noundef nonnull %.0.i, i32 noundef %48, ptr noundef nonnull %56, ptr noundef %50) #9
  %.not = icmp eq i32 %57, 0
  br i1 %.not, label %70, label %58

58:                                               ; preds = %ctype_raw.exit
  %59 = load i64, ptr %31, align 8, !tbaa !24
  %60 = inttoptr i64 %59 to ptr
  %61 = getelementptr inbounds nuw i8, ptr %60, i64 16
  %62 = load i64, ptr %61, align 8, !tbaa !46
  %63 = getelementptr inbounds nuw i8, ptr %60, i64 24
  %64 = load i64, ptr %63, align 8, !tbaa !47
  %.not25 = icmp ult i64 %62, %64
  br i1 %.not25, label %70, label %65, !prof !27

65:                                               ; preds = %58
  %66 = tail call i32 @lj_gc_step(ptr noundef nonnull %0) #9
  br label %70

.critedge:                                        ; preds = %30, %ffi_clib_index.exit
  %67 = phi i64 [ %38, %30 ], [ %28, %ffi_clib_index.exit ]
  %68 = load ptr, ptr %4, align 8, !tbaa !4
  %69 = getelementptr inbounds i8, ptr %68, i64 -8
  store i64 %67, ptr %69, align 8, !tbaa !23
  br label %70

70:                                               ; preds = %58, %65, %ctype_raw.exit, %.critedge
  ret i32 1
}